target datalayout = "e-m:e-p270:32:32-p271:32:32-p272:64:64-i64:64-i128:128-f80:128-n8:16:32:64-S128"
target triple = "x86_64-pc-linux-gnu"

%struct._ir_insn = type { %struct.anon, %union.anon.6 }
%struct.anon = type { %union.anon.0, %union.anon.5 }
%union.anon.0 = type { i32 }
%union.anon.5 = type { i32 }
%union.anon.6 = type { %union._ir_val }
%union._ir_val = type { double }
%struct._ir_ctx = type { ptr, i32, i32, i32, i32, i32, i32, i32, i32, i32, i32, %struct._ir_insn, ptr, ptr, ptr, i32, i32, i32, ptr, ptr, ptr, ptr, ptr, i32, i32, i64, i32, i32, i32, i64, i32, i32, i32, i32, ptr, ptr, ptr, ptr, ptr, ptr, %union.anon.14, ptr, i32, i32, i32, i64, i32, i32, i32, ptr, ptr, ptr, ptr, %struct._ir_strtab, [61 x i32], [14 x i32] }
%union.anon.14 = type { ptr }
%struct._ir_strtab = type { ptr, i32, i32, i32, i32, ptr, i32, i32 }
%struct._ir_backend_data = type { %struct._ir_reg_alloc_data, i32, ptr, ptr, i32, i32, i8, i8, i8, i8, i8 }
%struct._ir_reg_alloc_data = type { i32, i32, i32, ptr }

; Function Attrs: nounwind uwtable
define internal void @ir_emit_jcc(ptr noundef %0, i8 noundef zeroext %1, i32 noundef %2, i32 noundef %3, ptr noundef %4, i1 noundef zeroext %5) #0 {
  %7 = alloca ptr, align 8
  %8 = alloca i8, align 1
  %9 = alloca i32, align 4
  %10 = alloca i32, align 4
  %11 = alloca ptr, align 8
  %12 = alloca i8, align 1
  %13 = alloca i32, align 4
  %14 = alloca i32, align 4
  %15 = alloca i32, align 4
  %16 = alloca ptr, align 8
  %17 = alloca ptr, align 8
  store ptr %0, ptr %7, align 8
  store i8 %1, ptr %8, align 1
  store i32 %2, ptr %9, align 4
  store i32 %3, ptr %10, align 4
  store ptr %4, ptr %11, align 8
  %18 = zext i1 %5 to i8
  store i8 %18, ptr %12, align 1
  %19 = load ptr, ptr %7, align 8
  %20 = getelementptr inbounds %struct._ir_ctx, ptr %19, i32 0, i32 40
  %21 = load ptr, ptr %20, align 8
  store ptr %21, ptr %16, align 8
  %22 = load ptr, ptr %16, align 8
  %23 = getelementptr inbounds %struct._ir_backend_data, ptr %22, i32 0, i32 2
  store ptr %23, ptr %17, align 8
  %24 = load ptr, ptr %7, align 8
  %25 = load i32, ptr %9, align 4
  call void @ir_get_true_false_blocks(ptr noundef %24, i32 noundef %25, ptr noundef %13, ptr noundef %14, ptr noundef %15)
  %26 = load i32, ptr %13, align 4
  %27 = load i32, ptr %15, align 4
  %28 = icmp eq i32 %26, %27
  br i1 %28, label %29, label %52

29:                                               ; preds = %6
  %30 = load i8, ptr %12, align 1
  %31 = trunc i8 %30 to i1
  br i1 %31, label %40, label %32

32:                                               ; preds = %29
  %33 = load i8, ptr %8, align 1
  %34 = zext i8 %33 to i32
  %35 = icmp eq i32 %34, 14
  br i1 %35, label %40, label %36

36:                                               ; preds = %32
  %37 = load i8, ptr %8, align 1
  %38 = zext i8 %37 to i32
  %39 = icmp eq i32 %38, 15
  br i1 %39, label %40, label %45

40:                                               ; preds = %36, %32, %29
  %41 = load i8, ptr %8, align 1
  %42 = zext i8 %41 to i32
  %43 = xor i32 %42, 1
  %44 = trunc i32 %43 to i8
  store i8 %44, ptr %8, align 1
  br label %50

45:                                               ; preds = %36
  %46 = load i8, ptr %8, align 1
  %47 = zext i8 %46 to i32
  %48 = xor i32 %47, 5
  %49 = trunc i32 %48 to i8
  store i8 %49, ptr %8, align 1
  br label %50

50:                                               ; preds = %45, %40
  %51 = load i32, ptr %14, align 4
  store i32 %51, ptr %13, align 4
  store i32 0, ptr %14, align 4
  br label %58

52:                                               ; preds = %6
  %53 = load i32, ptr %14, align 4
  %54 = load i32, ptr %15, align 4
  %55 = icmp eq i32 %53, %54
  br i1 %55, label %56, label %57

56:                                               ; preds = %52
  store i32 0, ptr %14, align 4
  br label %57

57:                                               ; preds = %56, %52
  br label %58

58:                                               ; preds = %57, %50
  %59 = load i8, ptr %12, align 1
  %60 = trunc i8 %59 to i1
  br i1 %60, label %61, label %96

61:                                               ; preds = %58
  %62 = load i8, ptr %8, align 1
  %63 = zext i8 %62 to i32
  switch i32 %63, label %64 [
    i32 14, label %65
    i32 15, label %68
    i32 16, label %71
    i32 17, label %74
    i32 18, label %77
    i32 19, label %80
    i32 20, label %83
    i32 21, label %86
    i32 22, label %89
    i32 23, label %92
  ]

64:                                               ; preds = %61
  br label %65

65:                                               ; preds = %64, %61
  %66 = load ptr, ptr %17, align 8
  %67 = load i32, ptr %13, align 4
  call void (ptr, i32, ...) @dasm_put(ptr noundef %66, i32 noundef 21898, i32 noundef %67)
  br label %95

68:                                               ; preds = %61
  %69 = load ptr, ptr %17, align 8
  %70 = load i32, ptr %13, align 4
  call void (ptr, i32, ...) @dasm_put(ptr noundef %69, i32 noundef 21902, i32 noundef %70)
  br label %95

71:                                               ; preds = %61
  %72 = load ptr, ptr %17, align 8
  %73 = load i32, ptr %13, align 4
  call void (ptr, i32, ...) @dasm_put(ptr noundef %72, i32 noundef 21906, i32 noundef %73)
  br label %95

74:                                               ; preds = %61
  %75 = load ptr, ptr %17, align 8
  %76 = load i32, ptr %13, align 4
  call void (ptr, i32, ...) @dasm_put(ptr noundef %75, i32 noundef 21910, i32 noundef %76)
  br label %95

77:                                               ; preds = %61
  %78 = load ptr, ptr %17, align 8
  %79 = load i32, ptr %13, align 4
  call void (ptr, i32, ...) @dasm_put(ptr noundef %78, i32 noundef 21914, i32 noundef %79)
  br label %95

80:                                               ; preds = %61
  %81 = load ptr, ptr %17, align 8
  %82 = load i32, ptr %13, align 4
  call void (ptr, i32, ...) @dasm_put(ptr noundef %81, i32 noundef 21918, i32 noundef %82)
  br label %95

83:                                               ; preds = %61
  %84 = load ptr, ptr %17, align 8
  %85 = load i32, ptr %13, align 4
  call void (ptr, i32, ...) @dasm_put(ptr noundef %84, i32 noundef 4864, i32 noundef %85)
  br label %95

86:                                               ; preds = %61
  %87 = load ptr, ptr %17, align 8
  %88 = load i32, ptr %13, align 4
  call void (ptr, i32, ...) @dasm_put(ptr noundef %87, i32 noundef 4860, i32 noundef %88)
  br label %95

89:                                               ; preds = %61
  %90 = load ptr, ptr %17, align 8
  %91 = load i32, ptr %13, align 4
  call void (ptr, i32, ...) @dasm_put(ptr noundef %90, i32 noundef 21922, i32 noundef %91)
  br label %95

92:                                               ; preds = %61
  %93 = load ptr, ptr %17, align 8
  %94 = load i32, ptr %13, align 4
  call void (ptr, i32, ...) @dasm_put(ptr noundef %93, i32 noundef 21926, i32 noundef %94)
  br label %95

95:                                               ; preds = %92, %89, %86, %83, %80, %77, %74, %71, %68, %65
  br label %158

96:                                               ; preds = %58
  %97 = load i8, ptr %8, align 1
  %98 = zext i8 %97 to i32
  switch i32 %98, label %99 [
    i32 14, label %100
    i32 15, label %111
    i32 16, label %115
    i32 17, label %126
    i32 18, label %129
    i32 19, label %140
    i32 20, label %143
    i32 21, label %146
    i32 22, label %150
    i32 23, label %153
  ]

99:                                               ; preds = %96
  br label %100

100:                                              ; preds = %99, %96
  %101 = load i32, ptr %14, align 4
  %102 = icmp ne i32 %101, 0
  br i1 %102, label %106, label %103

103:                                              ; preds = %100
  %104 = load ptr, ptr %17, align 8
  %105 = load i32, ptr %13, align 4
  call void (ptr, i32, ...) @dasm_put(ptr noundef %104, i32 noundef 21930, i32 noundef %105)
  br label %110

106:                                              ; preds = %100
  %107 = load ptr, ptr %17, align 8
  %108 = load i32, ptr %14, align 4
  %109 = load i32, ptr %13, align 4
  call void (ptr, i32, ...) @dasm_put(ptr noundef %107, i32 noundef 21940, i32 noundef %108, i32 noundef %109)
  br label %110

110:                                              ; preds = %106, %103
  br label %157

111:                                              ; preds = %96
  %112 = load ptr, ptr %17, align 8
  %113 = load i32, ptr %13, align 4
  %114 = load i32, ptr %13, align 4
  call void (ptr, i32, ...) @dasm_put(ptr noundef %112, i32 noundef 21947, i32 noundef %113, i32 noundef %114)
  br label %157

115:                                              ; preds = %96
  %116 = load i32, ptr %14, align 4
  %117 = icmp ne i32 %116, 0
  br i1 %117, label %121, label %118

118:                                              ; preds = %115
  %119 = load ptr, ptr %17, align 8
  %120 = load i32, ptr %13, align 4
  call void (ptr, i32, ...) @dasm_put(ptr noundef %119, i32 noundef 21954, i32 noundef %120)
  br label %125

121:                                              ; preds = %115
  %122 = load ptr, ptr %17, align 8
  %123 = load i32, ptr %14, align 4
  %124 = load i32, ptr %13, align 4
  call void (ptr, i32, ...) @dasm_put(ptr noundef %122, i32 noundef 21964, i32 noundef %123, i32 noundef %124)
  br label %125

125:                                              ; preds = %121, %118
  br label %157

126:                                              ; preds = %96
  %127 = load ptr, ptr %17, align 8
  %128 = load i32, ptr %13, align 4
  call void (ptr, i32, ...) @dasm_put(ptr noundef %127, i32 noundef 4860, i32 noundef %128)
  br label %157

129:                                              ; preds = %96
  %130 = load i32, ptr %14, align 4
  %131 = icmp ne i32 %130, 0
  br i1 %131, label %135, label %132

132:                                              ; preds = %129
  %133 = load ptr, ptr %17, align 8
  %134 = load i32, ptr %13, align 4
  call void (ptr, i32, ...) @dasm_put(ptr noundef %133, i32 noundef 21971, i32 noundef %134)
  br label %139

135:                                              ; preds = %129
  %136 = load ptr, ptr %17, align 8
  %137 = load i32, ptr %14, align 4
  %138 = load i32, ptr %13, align 4
  call void (ptr, i32, ...) @dasm_put(ptr noundef %136, i32 noundef 21981, i32 noundef %137, i32 noundef %138)
  br label %139

139:                                              ; preds = %135, %132
  br label %157

140:                                              ; preds = %96
  %141 = load ptr, ptr %17, align 8
  %142 = load i32, ptr %13, align 4
  call void (ptr, i32, ...) @dasm_put(ptr noundef %141, i32 noundef 21926, i32 noundef %142)
  br label %157

143:                                              ; preds = %96
  %144 = load ptr, ptr %17, align 8
  %145 = load i32, ptr %13, align 4
  call void (ptr, i32, ...) @dasm_put(ptr noundef %144, i32 noundef 4864, i32 noundef %145)
  br label %157

146:                                              ; preds = %96
  %147 = load ptr, ptr %17, align 8
  %148 = load i32, ptr %13, align 4
  %149 = load i32, ptr %13, align 4
  call void (ptr, i32, ...) @dasm_put(ptr noundef %147, i32 noundef 21988, i32 noundef %148, i32 noundef %149)
  br label %157

150:                                              ; preds = %96
  %151 = load ptr, ptr %17, align 8
  %152 = load i32, ptr %13, align 4
  call void (ptr, i32, ...) @dasm_put(ptr noundef %151, i32 noundef 21922, i32 noundef %152)
  br label %157

153:                                              ; preds = %96
  %154 = load ptr, ptr %17, align 8
  %155 = load i32, ptr %13, align 4
  %156 = load i32, ptr %13, align 4
  call void (ptr, i32, ...) @dasm_put(ptr noundef %154, i32 noundef 21995, i32 noundef %155, i32 noundef %156)
  br label %157

157:                                              ; preds = %153, %150, %146, %143, %140, %139, %126, %125, %111, %110
  br label %158

158:                                              ; preds = %157, %95
  %159 = load i32, ptr %14, align 4
  %160 = icmp ne i32 %159, 0
  br i1 %160, label %161, label %164

161:                                              ; preds = %158
  %162 = load ptr, ptr %17, align 8
  %163 = load i32, ptr %14, align 4
  call void (ptr, i32, ...) @dasm_put(ptr noundef %162, i32 noundef 4868, i32 noundef %163)
  br label %164

164:                                              ; preds = %161, %158
  ret void
}